target datalayout = "e-m:e-p270:32:32-p271:32:32-p272:64:64-i64:64-i128:128-f80:128-n8:16:32:64-S128"
target triple = "x86_64-pc-linux-gnu"

; Function Attrs: inlinehint mustprogress nounwind uwtable
define linkonce_odr dso_local noundef ptr @_ZN8simdjson8internal9dtoa_impl15append_exponentEPci(ptr noundef %0, i32 noundef %1) #4 comdat {
  %3 = alloca ptr, align 8
  %4 = alloca i32, align 4
  %5 = alloca i32, align 4
  store ptr %0, ptr %3, align 8, !tbaa !4
  store i32 %1, ptr %4, align 4, !tbaa !16
  %6 = load i32, ptr %4, align 4, !tbaa !16
  %7 = icmp slt i32 %6, 0
  br i1 %7, label %8, label %13

8:                                                ; preds = %2
  %9 = load i32, ptr %4, align 4, !tbaa !16
  %10 = sub nsw i32 0, %9
  store i32 %10, ptr %4, align 4, !tbaa !16
  %11 = load ptr, ptr %3, align 8, !tbaa !4
  %12 = getelementptr inbounds nuw i8, ptr %11, i32 1
  store ptr %12, ptr %3, align 8, !tbaa !4
  store i8 45, ptr %11, align 1, !tbaa !15
  br label %16

13:                                               ; preds = %2
  %14 = load ptr, ptr %3, align 8, !tbaa !4
  %15 = getelementptr inbounds nuw i8, ptr %14, i32 1
  store ptr %15, ptr %3, align 8, !tbaa !4
  store i8 43, ptr %14, align 1, !tbaa !15
  br label %16

16:                                               ; preds = %13, %8
  call void @llvm.lifetime.start.p0(i64 4, ptr %5) #10
  %17 = load i32, ptr %4, align 4, !tbaa !16
  store i32 %17, ptr %5, align 4, !tbaa !16
  %18 = load i32, ptr %5, align 4, !tbaa !16
  %19 = icmp ult i32 %18, 10
  br i1 %19, label %20, label %28

20:                                               ; preds = %16
  %21 = load ptr, ptr %3, align 8, !tbaa !4
  %22 = getelementptr inbounds nuw i8, ptr %21, i32 1
  store ptr %22, ptr %3, align 8, !tbaa !4
  store i8 48, ptr %21, align 1, !tbaa !15
  %23 = load i32, ptr %5, align 4, !tbaa !16
  %24 = add i32 48, %23
  %25 = trunc i32 %24 to i8
  %26 = load ptr, ptr %3, align 8, !tbaa !4
  %27 = getelementptr inbounds nuw i8, ptr %26, i32 1
  store ptr %27, ptr %3, align 8, !tbaa !4
  store i8 %25, ptr %26, align 1, !tbaa !15
  br label %68

28:                                               ; preds = %16
  %29 = load i32, ptr %5, align 4, !tbaa !16
  %30 = icmp ult i32 %29, 100
  br i1 %30, label %31, label %45

31:                                               ; preds = %28
  %32 = load i32, ptr %5, align 4, !tbaa !16
  %33 = udiv i32 %32, 10
  %34 = add i32 48, %33
  %35 = trunc i32 %34 to i8
  %36 = load ptr, ptr %3, align 8, !tbaa !4
  %37 = getelementptr inbounds nuw i8, ptr %36, i32 1
  store ptr %37, ptr %3, align 8, !tbaa !4
  store i8 %35, ptr %36, align 1, !tbaa !15
  %38 = load i32, ptr %5, align 4, !tbaa !16
  %39 = urem i32 %38, 10
  store i32 %39, ptr %5, align 4, !tbaa !16
  %40 = load i32, ptr %5, align 4, !tbaa !16
  %41 = add i32 48, %40
  %42 = trunc i32 %41 to i8
  %43 = load ptr, ptr %3, align 8, !tbaa !4
  %44 = getelementptr inbounds nuw i8, ptr %43, i32 1
  store ptr %44, ptr %3, align 8, !tbaa !4
  store i8 %42, ptr %43, align 1, !tbaa !15
  br label %67

45:                                               ; preds = %28
  %46 = load i32, ptr %5, align 4, !tbaa !16
  %47 = udiv i32 %46, 100
  %48 = add i32 48, %47
  %49 = trunc i32 %48 to i8
  %50 = load ptr, ptr %3, align 8, !tbaa !4
  %51 = getelementptr inbounds nuw i8, ptr %50, i32 1
  store ptr %51, ptr %3, align 8, !tbaa !4
  store i8 %49, ptr %50, align 1, !tbaa !15
  %52 = load i32, ptr %5, align 4, !tbaa !16
  %53 = urem i32 %52, 100
  store i32 %53, ptr %5, align 4, !tbaa !16
  %54 = load i32, ptr %5, align 4, !tbaa !16
  %55 = udiv i32 %54, 10
  %56 = add i32 48, %55
  %57 = trunc i32 %56 to i8
  %58 = load ptr, ptr %3, align 8, !tbaa !4
  %59 = getelementptr inbounds nuw i8, ptr %58, i32 1
  store ptr %59, ptr %3, align 8, !tbaa !4
  store i8 %57, ptr %58, align 1, !tbaa !15
  %60 = load i32, ptr %5, align 4, !tbaa !16
  %61 = urem i32 %60, 10
  store i32 %61, ptr %5, align 4, !tbaa !16
  %62 = load i32, ptr %5, align 4, !tbaa !16
  %63 = add i32 48, %62
  %64 = trunc i32 %63 to i8
  %65 = load ptr, ptr %3, align 8, !tbaa !4
  %66 = getelementptr inbounds nuw i8, ptr %65, i32 1
  store ptr %66, ptr %3, align 8, !tbaa !4
  store i8 %64, ptr %65, align 1, !tbaa !15
  br label %67

67:                                               ; preds = %45, %31
  br label %68

68:                                               ; preds = %67, %20
  %69 = load ptr, ptr %3, align 8, !tbaa !4
  call void @llvm.lifetime.end.p0(i64 4, ptr %5) #10
  ret ptr %69
}

; Function Attrs: inlinehint mustprogress uwtable
define linkonce_odr dso_local noundef ptr @_ZN8simdjson8internal9dtoa_impl13format_bufferEPciiii(ptr noundef %0, i32 noundef %1, i32 noundef %2, i32 noundef %3, i32 noundef %4) #3 comdat {
  %6 = alloca ptr, align 8
  %7 = alloca ptr, align 8
  %8 = alloca i32, align 4
  %9 = alloca i32, align 4
  %10 = alloca i32, align 4
  %11 = alloca i32, align 4
  %12 = alloca i32, align 4
  %13 = alloca i32, align 4
  %14 = alloca i32, align 4
  store ptr %0, ptr %7, align 8, !tbaa !4
  store i32 %1, ptr %8, align 4, !tbaa !16
  store i32 %2, ptr %9, align 4, !tbaa !16
  store i32 %3, ptr %10, align 4, !tbaa !16
  store i32 %4, ptr %11, align 4, !tbaa !16
  call void @llvm.lifetime.start.p0(i64 4, ptr %12) #10
  %15 = load i32, ptr %8, align 4, !tbaa !16
  store i32 %15, ptr %12, align 4, !tbaa !16
  call void @llvm.lifetime.start.p0(i64 4, ptr %13) #10
  %16 = load i32, ptr %8, align 4, !tbaa !16
  %17 = load i32, ptr %9, align 4, !tbaa !16
  %18 = add nsw i32 %16, %17
  store i32 %18, ptr %13, align 4, !tbaa !16
  %19 = load i32, ptr %12, align 4, !tbaa !16
  %20 = load i32, ptr %13, align 4, !tbaa !16
  %21 = icmp sle i32 %19, %20
  br i1 %21, label %22, label %51

22:                                               ; preds = %5
  %23 = load i32, ptr %13, align 4, !tbaa !16
  %24 = load i32, ptr %11, align 4, !tbaa !16
  %25 = icmp sle i32 %23, %24
  br i1 %25, label %26, label %51

26:                                               ; preds = %22
  %27 = load ptr, ptr %7, align 8, !tbaa !4
  %28 = load i32, ptr %12, align 4, !tbaa !16
  %29 = sext i32 %28 to i64
  %30 = getelementptr inbounds i8, ptr %27, i64 %29
  %31 = load i32, ptr %13, align 4, !tbaa !16
  %32 = sext i32 %31 to i64
  %33 = load i32, ptr %12, align 4, !tbaa !16
  %34 = sext i32 %33 to i64
  %35 = sub i64 %32, %34
  call void @llvm.memset.p0.i64(ptr align 1 %30, i8 48, i64 %35, i1 false)
  %36 = load ptr, ptr %7, align 8, !tbaa !4
  %37 = load i32, ptr %13, align 4, !tbaa !16
  %38 = add nsw i32 %37, 0
  %39 = sext i32 %38 to i64
  %40 = getelementptr inbounds i8, ptr %36, i64 %39
  store i8 46, ptr %40, align 1, !tbaa !15
  %41 = load ptr, ptr %7, align 8, !tbaa !4
  %42 = load i32, ptr %13, align 4, !tbaa !16
  %43 = add nsw i32 %42, 1
  %44 = sext i32 %43 to i64
  %45 = getelementptr inbounds i8, ptr %41, i64 %44
  store i8 48, ptr %45, align 1, !tbaa !15
  %46 = load ptr, ptr %7, align 8, !tbaa !4
  %47 = load i32, ptr %13, align 4, !tbaa !16
  %48 = sext i32 %47 to i64
  %49 = getelementptr inbounds nuw i8, ptr %46, i64 %48
  %50 = getelementptr inbounds i8, ptr %49, i64 2
  store ptr %50, ptr %6, align 8
  store i32 1, ptr %14, align 4
  br label %145

51:                                               ; preds = %22, %5
  %52 = load i32, ptr %13, align 4, !tbaa !16
  %53 = icmp slt i32 0, %52
  br i1 %53, label %54, label %82

54:                                               ; preds = %51
  %55 = load i32, ptr %13, align 4, !tbaa !16
  %56 = load i32, ptr %11, align 4, !tbaa !16
  %57 = icmp sle i32 %55, %56
  br i1 %57, label %58, label %82

58:                                               ; preds = %54
  %59 = load ptr, ptr %7, align 8, !tbaa !4
  %60 = load i32, ptr %13, align 4, !tbaa !16
  %61 = sext i32 %60 to i64
  %62 = add i64 %61, 1
  %63 = getelementptr inbounds nuw i8, ptr %59, i64 %62
  %64 = load ptr, ptr %7, align 8, !tbaa !4
  %65 = load i32, ptr %13, align 4, !tbaa !16
  %66 = sext i32 %65 to i64
  %67 = getelementptr inbounds i8, ptr %64, i64 %66
  %68 = load i32, ptr %12, align 4, !tbaa !16
  %69 = sext i32 %68 to i64
  %70 = load i32, ptr %13, align 4, !tbaa !16
  %71 = sext i32 %70 to i64
  %72 = sub i64 %69, %71
  call void @llvm.memmove.p0.p0.i64(ptr align 1 %63, ptr align 1 %67, i64 %72, i1 false)
  %73 = load ptr, ptr %7, align 8, !tbaa !4
  %74 = load i32, ptr %13, align 4, !tbaa !16
  %75 = sext i32 %74 to i64
  %76 = getelementptr inbounds i8, ptr %73, i64 %75
  store i8 46, ptr %76, align 1, !tbaa !15
  %77 = load ptr, ptr %7, align 8, !tbaa !4
  %78 = load i32, ptr %12, align 4, !tbaa !16
  %79 = sext i32 %78 to i64
  %80 = add i64 %79, 1
  %81 = getelementptr inbounds nuw i8, ptr %77, i64 %80
  store ptr %81, ptr %6, align 8
  store i32 1, ptr %14, align 4
  br label %145

82:                                               ; preds = %54, %51
  %83 = load i32, ptr %10, align 4, !tbaa !16
  %84 = load i32, ptr %13, align 4, !tbaa !16
  %85 = icmp slt i32 %83, %84
  br i1 %85, label %86, label %117

86:                                               ; preds = %82
  %87 = load i32, ptr %13, align 4, !tbaa !16
  %88 = icmp sle i32 %87, 0
  br i1 %88, label %89, label %117

89:                                               ; preds = %86
  %90 = load ptr, ptr %7, align 8, !tbaa !4
  %91 = load i32, ptr %13, align 4, !tbaa !16
  %92 = sub nsw i32 0, %91
  %93 = sext i32 %92 to i64
  %94 = add i64 2, %93
  %95 = getelementptr inbounds nuw i8, ptr %90, i64 %94
  %96 = load ptr, ptr %7, align 8, !tbaa !4
  %97 = load i32, ptr %12, align 4, !tbaa !16
  %98 = sext i32 %97 to i64
  call void @llvm.memmove.p0.p0.i64(ptr align 1 %95, ptr align 1 %96, i64 %98, i1 false)
  %99 = load ptr, ptr %7, align 8, !tbaa !4
  %100 = getelementptr inbounds i8, ptr %99, i64 0
  store i8 48, ptr %100, align 1, !tbaa !15
  %101 = load ptr, ptr %7, align 8, !tbaa !4
  %102 = getelementptr inbounds i8, ptr %101, i64 1
  store i8 46, ptr %102, align 1, !tbaa !15
  %103 = load ptr, ptr %7, align 8, !tbaa !4
  %104 = getelementptr inbounds i8, ptr %103, i64 2
  %105 = load i32, ptr %13, align 4, !tbaa !16
  %106 = sub nsw i32 0, %105
  %107 = sext i32 %106 to i64
  call void @llvm.memset.p0.i64(ptr align 1 %104, i8 48, i64 %107, i1 false)
  %108 = load ptr, ptr %7, align 8, !tbaa !4
  %109 = load i32, ptr %13, align 4, !tbaa !16
  %110 = sub nsw i32 0, %109
  %111 = sext i32 %110 to i64
  %112 = add i64 2, %111
  %113 = load i32, ptr %12, align 4, !tbaa !16
  %114 = sext i32 %113 to i64
  %115 = add i64 %112, %114
  %116 = getelementptr inbounds nuw i8, ptr %108, i64 %115
  store ptr %116, ptr %6, align 8
  store i32 1, ptr %14, align 4
  br label %145

117:                                              ; preds = %86, %82
  %118 = load i32, ptr %12, align 4, !tbaa !16
  %119 = icmp eq i32 %118, 1
  br i1 %119, label %120, label %123

120:                                              ; preds = %117
  %121 = load ptr, ptr %7, align 8, !tbaa !4
  %122 = getelementptr inbounds i8, ptr %121, i64 1
  store ptr %122, ptr %7, align 8, !tbaa !4
  br label %138

123:                                              ; preds = %117
  %124 = load ptr, ptr %7, align 8, !tbaa !4
  %125 = getelementptr inbounds i8, ptr %124, i64 2
  %126 = load ptr, ptr %7, align 8, !tbaa !4
  %127 = getelementptr inbounds i8, ptr %126, i64 1
  %128 = load i32, ptr %12, align 4, !tbaa !16
  %129 = sext i32 %128 to i64
  %130 = sub i64 %129, 1
  call void @llvm.memmove.p0.p0.i64(ptr align 1 %125, ptr align 1 %127, i64 %130, i1 false)
  %131 = load ptr, ptr %7, align 8, !tbaa !4
  %132 = getelementptr inbounds i8, ptr %131, i64 1
  store i8 46, ptr %132, align 1, !tbaa !15
  %133 = load i32, ptr %12, align 4, !tbaa !16
  %134 = sext i32 %133 to i64
  %135 = add i64 1, %134
  %136 = load ptr, ptr %7, align 8, !tbaa !4
  %137 = getelementptr inbounds nuw i8, ptr %136, i64 %135
  store ptr %137, ptr %7, align 8, !tbaa !4
  br label %138

138:                                              ; preds = %123, %120
  %139 = load ptr, ptr %7, align 8, !tbaa !4
  %140 = getelementptr inbounds nuw i8, ptr %139, i32 1
  store ptr %140, ptr %7, align 8, !tbaa !4
  store i8 101, ptr %139, align 1, !tbaa !15
  %141 = load ptr, ptr %7, align 8, !tbaa !4
  %142 = load i32, ptr %13, align 4, !tbaa !16
  %143 = sub nsw i32 %142, 1
  %144 = call noundef ptr @_ZN8simdjson8internal9dtoa_impl15append_exponentEPci(ptr noundef %141, i32 noundef %143)
  store ptr %144, ptr %6, align 8
  store i32 1, ptr %14, align 4
  br label %145

145:                                              ; preds = %138, %89, %58, %26
  call void @llvm.lifetime.end.p0(i64 4, ptr %13) #10
  call void @llvm.lifetime.end.p0(i64 4, ptr %12) #10
  %146 = load ptr, ptr %6, align 8
  ret ptr %146
}

; Function Attrs: mustprogress nounwind uwtable
define linkonce_odr dso_local noundef zeroext i1 @_ZSt7signbitd(double noundef %0) #2 comdat {
  %2 = alloca double, align 8
  store double %0, ptr %2, align 8, !tbaa !9
  %3 = load double, ptr %2, align 8, !tbaa !9
  %4 = bitcast double %3 to i64
  %5 = icmp slt i64 %4, 0
  ret i1 %5
}

; Function Attrs: mustprogress uwtable
define dso_local noundef ptr @_ZN8simdjson8internal8to_charsEPcPKcd(ptr noundef %0, ptr noundef %1, double noundef %2) #0 {
  %4 = alloca ptr, align 8
  %5 = alloca ptr, align 8
  %6 = alloca ptr, align 8
  %7 = alloca double, align 8
  %8 = alloca i8, align 1
  %9 = alloca i32, align 4
  %10 = alloca i32, align 4
  %11 = alloca i32, align 4
  %12 = alloca i32, align 4
  %13 = alloca i32, align 4
  store ptr %0, ptr %5, align 8, !tbaa !4
  store ptr %1, ptr %6, align 8, !tbaa !4
  store double %2, ptr %7, align 8, !tbaa !9
  call void @llvm.lifetime.start.p0(i64 1, ptr %8) #10
  %14 = load double, ptr %7, align 8, !tbaa !9
  %15 = call noundef zeroext i1 @_ZSt7signbitd(double noundef %14)
  %16 = zext i1 %15 to i8
  store i8 %16, ptr %8, align 1, !tbaa !11
  %17 = load i8, ptr %8, align 1, !tbaa !11, !range !13, !noundef !14
  %18 = trunc i8 %17 to i1
  br i1 %18, label %19, label %24

19:                                               ; preds = %3
  %20 = load double, ptr %7, align 8, !tbaa !9
  %21 = fneg double %20
  store double %21, ptr %7, align 8, !tbaa !9
  %22 = load ptr, ptr %5, align 8, !tbaa !4
  %23 = getelementptr inbounds nuw i8, ptr %22, i32 1
  store ptr %23, ptr %5, align 8, !tbaa !4
  store i8 45, ptr %22, align 1, !tbaa !15
  br label %24

24:                                               ; preds = %19, %3
  %25 = load double, ptr %7, align 8, !tbaa !9
  %26 = fcmp oeq double %25, 0.000000e+00
  br i1 %26, label %27, label %35

27:                                               ; preds = %24
  %28 = load ptr, ptr %5, align 8, !tbaa !4
  %29 = getelementptr inbounds nuw i8, ptr %28, i32 1
  store ptr %29, ptr %5, align 8, !tbaa !4
  store i8 48, ptr %28, align 1, !tbaa !15
  %30 = load ptr, ptr %5, align 8, !tbaa !4
  %31 = getelementptr inbounds nuw i8, ptr %30, i32 1
  store ptr %31, ptr %5, align 8, !tbaa !4
  store i8 46, ptr %30, align 1, !tbaa !15
  %32 = load ptr, ptr %5, align 8, !tbaa !4
  %33 = getelementptr inbounds nuw i8, ptr %32, i32 1
  store ptr %33, ptr %5, align 8, !tbaa !4
  store i8 48, ptr %32, align 1, !tbaa !15
  %34 = load ptr, ptr %5, align 8, !tbaa !4
  store ptr %34, ptr %4, align 8
  store i32 1, ptr %9, align 4
  br label %42

35:                                               ; preds = %24
  call void @llvm.lifetime.start.p0(i64 4, ptr %10) #10
  store i32 0, ptr %10, align 4, !tbaa !16
  call void @llvm.lifetime.start.p0(i64 4, ptr %11) #10
  store i32 0, ptr %11, align 4, !tbaa !16
  %36 = load ptr, ptr %5, align 8, !tbaa !4
  %37 = load double, ptr %7, align 8, !tbaa !9
  call void @_ZN8simdjson8internal9dtoa_impl6grisu2IdEEvPcRiS4_T_(ptr noundef %36, ptr noundef nonnull align 4 dereferenceable(4) %10, ptr noundef nonnull align 4 dereferenceable(4) %11, double noundef %37)
  call void @llvm.lifetime.start.p0(i64 4, ptr %12) #10
  store i32 -4, ptr %12, align 4, !tbaa !16
  call void @llvm.lifetime.start.p0(i64 4, ptr %13) #10
  store i32 15, ptr %13, align 4, !tbaa !16
  %38 = load ptr, ptr %5, align 8, !tbaa !4
  %39 = load i32, ptr %10, align 4, !tbaa !16
  %40 = load i32, ptr %11, align 4, !tbaa !16
  %41 = call noundef ptr @_ZN8simdjson8internal9dtoa_impl13format_bufferEPciiii(ptr noundef %38, i32 noundef %39, i32 noundef %40, i32 noundef -4, i32 noundef 15)
  store ptr %41, ptr %4, align 8
  store i32 1, ptr %9, align 4
  call void @llvm.lifetime.end.p0(i64 4, ptr %13) #10
  call void @llvm.lifetime.end.p0(i64 4, ptr %12) #10
  call void @llvm.lifetime.end.p0(i64 4, ptr %11) #10
  call void @llvm.lifetime.end.p0(i64 4, ptr %10) #10
  br label %42

42:                                               ; preds = %35, %27
  call void @llvm.lifetime.end.p0(i64 1, ptr %8) #10
  %43 = load ptr, ptr %4, align 8
  ret ptr %43
}