; Function Attrs: mustprogress uwtable
define dso_local noundef ptr @_ZN8simdjson8internal8to_charsEPcPKcd(ptr noundef %0, ptr noundef readnone captures(none) %1, double noundef %2) local_unnamed_addr #0 {
  %4 = alloca i32, align 4
  %5 = alloca i32, align 4
  %6 = bitcast double %2 to i64
  %7 = icmp slt i64 %6, 0
  br i1 %7, label %8, label %11

8:                                                ; preds = %3
  %9 = fneg double %2
  %10 = getelementptr inbounds nuw i8, ptr %0, i64 1
  store i8 45, ptr %0, align 1, !tbaa !4
  br label %11

11:                                               ; preds = %8, %3
  %.013 = phi double [ %9, %8 ], [ %2, %3 ]
  %.012 = phi ptr [ %10, %8 ], [ %0, %3 ]
  %12 = fcmp oeq double %.013, 0.000000e+00
  br i1 %12, label %13, label %17

13:                                               ; preds = %11
  %14 = getelementptr inbounds nuw i8, ptr %.012, i64 1
  store i8 48, ptr %.012, align 1, !tbaa !4
  %15 = getelementptr inbounds nuw i8, ptr %.012, i64 2
  store i8 46, ptr %14, align 1, !tbaa !4
  %16 = getelementptr inbounds nuw i8, ptr %.012, i64 3
  store i8 48, ptr %15, align 1, !tbaa !4
  br label %88

17:                                               ; preds = %11
  call void @llvm.lifetime.start.p0(i64 4, ptr nonnull %4) #45
  store i32 0, ptr %4, align 4, !tbaa !7
  call void @llvm.lifetime.start.p0(i64 4, ptr nonnull %5) #45
  store i32 0, ptr %5, align 4, !tbaa !7
  call void @_ZN8simdjson8internal9dtoa_impl6grisu2IdEEvPcRiS4_T_(ptr noundef %.012, ptr noundef nonnull align 4 dereferenceable(4) %4, ptr noundef nonnull align 4 dereferenceable(4) %5, double noundef %.013)
  %18 = load i32, ptr %4, align 4, !tbaa !7
  %19 = load i32, ptr %5, align 4, !tbaa !7
  %20 = add nsw i32 %19, %18
  %.not.i = icmp slt i32 %19, 0
  %.not59.i = icmp sgt i32 %20, 15
  %or.cond61.i = select i1 %.not.i, i1 true, i1 %.not59.i
  br i1 %or.cond61.i, label %29, label %21

21:                                               ; preds = %17
  %22 = sext i32 %18 to i64
  %23 = getelementptr inbounds i8, ptr %.012, i64 %22
  %24 = sext i32 %20 to i64
  %25 = sub nsw i64 %24, %22
  call void @llvm.memset.p0.i64(ptr align 1 %23, i8 48, i64 %25, i1 false)
  %26 = getelementptr inbounds i8, ptr %.012, i64 %24
  store i8 46, ptr %26, align 1, !tbaa !4
  %27 = getelementptr i8, ptr %26, i64 1
  store i8 48, ptr %27, align 1, !tbaa !4
  %28 = getelementptr inbounds nuw i8, ptr %26, i64 2
  br label %_ZN8simdjson8internal9dtoa_impl13format_bufferEPciiii.exit

29:                                               ; preds = %17
  %30 = icmp slt i32 %20, 1
  %31 = add i32 %20, -16
  %or.cond62.i = icmp ult i32 %31, -15
  br i1 %or.cond62.i, label %40, label %32

32:                                               ; preds = %29
  %33 = zext nneg i32 %20 to i64
  %34 = getelementptr inbounds nuw i8, ptr %.012, i64 %33
  %35 = getelementptr inbounds nuw i8, ptr %34, i64 1
  %36 = sext i32 %18 to i64
  %37 = sub nsw i64 %36, %33
  call void @llvm.memmove.p0.p0.i64(ptr nonnull align 1 %35, ptr nonnull align 1 %34, i64 %37, i1 false)
  store i8 46, ptr %34, align 1, !tbaa !4
  %38 = getelementptr i8, ptr %.012, i64 %36
  %39 = getelementptr i8, ptr %38, i64 1
  br label %_ZN8simdjson8internal9dtoa_impl13format_bufferEPciiii.exit

40:                                               ; preds = %29
  %41 = add i32 %20, 3
  %or.cond.i = icmp ult i32 %41, 4
  br i1 %or.cond.i, label %42, label %51

42:                                               ; preds = %40
  %43 = sub nsw i32 0, %20
  %44 = zext nneg i32 %43 to i64
  %45 = getelementptr i8, ptr %.012, i64 %44
  %46 = getelementptr i8, ptr %45, i64 2
  %47 = sext i32 %18 to i64
  call void @llvm.memmove.p0.p0.i64(ptr nonnull align 1 %46, ptr align 1 %.012, i64 %47, i1 false)
  store i8 48, ptr %.012, align 1, !tbaa !4
  %48 = getelementptr inbounds nuw i8, ptr %.012, i64 1
  store i8 46, ptr %48, align 1, !tbaa !4
  %49 = getelementptr inbounds nuw i8, ptr %.012, i64 2
  call void @llvm.memset.p0.i64(ptr nonnull align 1 %49, i8 48, i64 %44, i1 false)
  %50 = getelementptr i8, ptr %46, i64 %47
  br label %_ZN8simdjson8internal9dtoa_impl13format_bufferEPciiii.exit

51:                                               ; preds = %40
  %52 = icmp eq i32 %18, 1
  br i1 %52, label %59, label %53

53:                                               ; preds = %51
  %54 = getelementptr inbounds nuw i8, ptr %.012, i64 2
  %55 = getelementptr inbounds nuw i8, ptr %.012, i64 1
  %56 = sext i32 %18 to i64
  %57 = add nsw i64 %56, -1
  call void @llvm.memmove.p0.p0.i64(ptr nonnull align 1 %54, ptr nonnull align 1 %55, i64 %57, i1 false)
  store i8 46, ptr %55, align 1, !tbaa !4
  %58 = getelementptr i8, ptr %.012, i64 %56
  br label %59

59:                                               ; preds = %53, %51
  %.pn.i = phi ptr [ %58, %53 ], [ %.012, %51 ]
  %.056.i = getelementptr i8, ptr %.pn.i, i64 1
  %60 = getelementptr i8, ptr %.pn.i, i64 2
  store i8 101, ptr %.056.i, align 1, !tbaa !4
  %61 = add nsw i32 %20, -1
  %storemerge.i.i = select i1 %30, i8 45, i8 43
  %.0.i.i = call i32 @llvm.abs.i32(i32 %61, i1 true)
  %.023.i.i = getelementptr i8, ptr %.pn.i, i64 3
  store i8 %storemerge.i.i, ptr %60, align 1, !tbaa !4
  %62 = icmp samesign ult i32 %.0.i.i, 10
  br i1 %62, label %63, label %68

63:                                               ; preds = %59
  %64 = getelementptr i8, ptr %.pn.i, i64 4
  store i8 48, ptr %.023.i.i, align 1, !tbaa !4
  %65 = trunc nuw i32 %.0.i.i to i8
  %66 = or disjoint i8 %65, 48
  %67 = getelementptr i8, ptr %.pn.i, i64 5
  store i8 %66, ptr %64, align 1, !tbaa !4
  br label %_ZN8simdjson8internal9dtoa_impl13format_bufferEPciiii.exit

68:                                               ; preds = %59
  %69 = icmp samesign ult i32 %.0.i.i, 100
  %70 = getelementptr i8, ptr %.pn.i, i64 4
  br i1 %69, label %71, label %77

71:                                               ; preds = %68
  %.lhs.trunc.i.i = trunc nuw i32 %.0.i.i to i8
  %72 = udiv i8 %.lhs.trunc.i.i, 10
  %73 = or disjoint i8 %72, 48
  store i8 %73, ptr %.023.i.i, align 1, !tbaa !4
  %74 = urem i8 %.lhs.trunc.i.i, 10
  %75 = or disjoint i8 %74, 48
  %76 = getelementptr i8, ptr %.pn.i, i64 5
  store i8 %75, ptr %70, align 1, !tbaa !4
  br label %_ZN8simdjson8internal9dtoa_impl13format_bufferEPciiii.exit

77:                                               ; preds = %68
  %78 = udiv i32 %.0.i.i, 100
  %79 = trunc i32 %78 to i8
  %80 = add i8 %79, 48
  store i8 %80, ptr %.023.i.i, align 1, !tbaa !4
  %81 = urem i32 %.0.i.i, 100
  %.lhs.trunc28.i.i = trunc nuw nsw i32 %81 to i8
  %82 = udiv i8 %.lhs.trunc28.i.i, 10
  %83 = or disjoint i8 %82, 48
  %84 = getelementptr i8, ptr %.pn.i, i64 5
  store i8 %83, ptr %70, align 1, !tbaa !4
  %85 = urem i8 %.lhs.trunc28.i.i, 10
  %86 = or disjoint i8 %85, 48
  %87 = getelementptr i8, ptr %.pn.i, i64 6
  store i8 %86, ptr %84, align 1, !tbaa !4
  br label %_ZN8simdjson8internal9dtoa_impl13format_bufferEPciiii.exit

_ZN8simdjson8internal9dtoa_impl13format_bufferEPciiii.exit: ; preds = %21, %32, %42, %63, %71, %77
  %.0.i = phi ptr [ %28, %21 ], [ %39, %32 ], [ %50, %42 ], [ %67, %63 ], [ %76, %71 ], [ %87, %77 ]
  call void @llvm.lifetime.end.p0(i64 4, ptr nonnull %5) #45
  call void @llvm.lifetime.end.p0(i64 4, ptr nonnull %4) #45
  br label %88

88:                                               ; preds = %_ZN8simdjson8internal9dtoa_impl13format_bufferEPciiii.exit, %13
  %.0 = phi ptr [ %16, %13 ], [ %.0.i, %_ZN8simdjson8internal9dtoa_impl13format_bufferEPciiii.exit ]
  ret ptr %.0
}